; ModuleID = 'source-C-CXX/14/676.cpp'
source_filename = "source-C-CXX/14/676.cpp"
target datalayout = "e-m:e-p270:32:32-p271:32:32-p272:64:64-i64:64-f80:128-n8:16:32:64-S128"
target triple = "x86_64-pc-linux-gnu"

%"class.std::ios_base::Init" = type { i8 }
%"class.std::basic_istream" = type { i32 (...)**, i64, %"class.std::basic_ios" }
%"class.std::basic_ios" = type { %"class.std::ios_base", %"class.std::basic_ostream"*, i8, i8, %"class.std::basic_streambuf"*, %"class.std::ctype"*, %"class.std::num_put"*, %"class.std::num_get"* }
%"class.std::ios_base" = type { i32 (...)**, i64, i64, i32, i32, i32, %"struct.std::ios_base::_Callback_list"*, %"struct.std::ios_base::_Words", [8 x %"struct.std::ios_base::_Words"], i32, %"struct.std::ios_base::_Words"*, %"class.std::locale" }
%"struct.std::ios_base::_Callback_list" = type { %"struct.std::ios_base::_Callback_list"*, void (i32, %"class.std::ios_base"*, i32)*, i32, i32 }
%"struct.std::ios_base::_Words" = type { i8*, i64 }
%"class.std::locale" = type { %"class.std::locale::_Impl"* }
%"class.std::locale::_Impl" = type { i32, %"class.std::locale::facet"**, i64, %"class.std::locale::facet"**, i8** }
%"class.std::locale::facet" = type <{ i32 (...)**, i32, [4 x i8] }>
%"class.std::basic_ostream" = type { i32 (...)**, %"class.std::basic_ios" }
%"class.std::basic_streambuf" = type { i32 (...)**, i8*, i8*, i8*, i8*, i8*, i8*, %"class.std::locale" }
%"class.std::ctype" = type <{ %"class.std::locale::facet.base", [4 x i8], %struct.__locale_struct*, i8, [7 x i8], i32*, i32*, i16*, i8, [256 x i8], [256 x i8], i8, [6 x i8] }>
%"class.std::locale::facet.base" = type <{ i32 (...)**, i32 }>
%struct.__locale_struct = type { [13 x %struct.__locale_data*], i16*, i32*, i32*, [13 x i8*] }
%struct.__locale_data = type opaque
%"class.std::num_put" = type { %"class.std::locale::facet.base", [4 x i8] }
%"class.std::num_get" = type { %"class.std::locale::facet.base", [4 x i8] }

@_ZStL8__ioinit = internal global %"class.std::ios_base::Init" zeroinitializer, align 1
@__dso_handle = external hidden global i8
@_ZSt3cin = external global %"class.std::basic_istream", align 8
@_ZSt4cout = external global %"class.std::basic_ostream", align 8
@llvm.global_ctors = appending global [1 x { i32, void ()*, i8* }] [{ i32, void ()*, i8* } { i32 65535, void ()* @_GLOBAL__sub_I_676.cpp, i8* null }]

declare void @_ZNSt8ios_base4InitC1Ev(%"class.std::ios_base::Init"* nonnull align 1 dereferenceable(1)) unnamed_addr #0

; Function Attrs: nounwind
declare void @_ZNSt8ios_base4InitD1Ev(%"class.std::ios_base::Init"* nonnull align 1 dereferenceable(1)) unnamed_addr #1

; Function Attrs: nofree nounwind
declare i32 @__cxa_atexit(void (i8*)*, i8*, i8*) local_unnamed_addr #2

; Function Attrs: mustprogress norecurse sspstrong uwtable
define dso_local i32 @main() local_unnamed_addr #3 {
  %1 = alloca [100 x [100 x i32]], align 16
  %2 = alloca i32, align 4
  %3 = bitcast [100 x [100 x i32]]* %1 to i8*
  call void @llvm.lifetime.start.p0i8(i64 40000, i8* nonnull %3) #9
  call void @llvm.memset.p0i8.i64(i8* noundef nonnull align 16 dereferenceable(40000) %3, i8 0, i64 40000, i1 false)
  %4 = bitcast i32* %2 to i8*
  call void @llvm.lifetime.start.p0i8(i64 4, i8* nonnull %4) #9
  %5 = call nonnull align 8 dereferenceable(16) %"class.std::basic_istream"* @_ZNSirsERi(%"class.std::basic_istream"* nonnull align 8 dereferenceable(16) @_ZSt3cin, i32* nonnull align 4 dereferenceable(4) %2)
  %6 = load i32, i32* %2, align 4, !tbaa !5
  %7 = icmp sgt i32 %6, 0
  br i1 %7, label %8, label %131

8:                                                ; preds = %0, %123
  %9 = phi i32 [ %124, %123 ], [ %6, %0 ]
  %10 = phi i64 [ %129, %123 ], [ 0, %0 ]
  %11 = phi i32 [ %125, %123 ], [ 0, %0 ]
  %12 = phi i32 [ %128, %123 ], [ 0, %0 ]
  %13 = icmp eq i32 %12, 0
  %14 = icmp sgt i32 %9, 0
  br i1 %14, label %109, label %123

15:                                               ; preds = %123
  %16 = icmp sgt i32 %124, 0
  br i1 %16, label %17, label %131

17:                                               ; preds = %15
  %18 = zext i32 %124 to i64
  %19 = and i64 %18, 4294967288
  %20 = add nsw i64 %19, -8
  %21 = lshr exact i64 %20, 3
  %22 = add nuw nsw i64 %21, 1
  %23 = icmp ult i32 %124, 8
  %24 = and i64 %18, 4294967288
  %25 = and i64 %22, 1
  %26 = icmp eq i64 %20, 0
  %27 = and i64 %22, 4611686018427387902
  %28 = icmp eq i64 %25, 0
  %29 = icmp eq i64 %24, %18
  br label %30

30:                                               ; preds = %17, %105
  %31 = phi i64 [ 0, %17 ], [ %107, %105 ]
  %32 = phi i32 [ 0, %17 ], [ %106, %105 ]
  br i1 %23, label %92, label %33

33:                                               ; preds = %30
  %34 = insertelement <4 x i32> <i32 poison, i32 0, i32 0, i32 0>, i32 %32, i32 0
  br i1 %26, label %68, label %35

35:                                               ; preds = %33, %35
  %36 = phi i64 [ %65, %35 ], [ 0, %33 ]
  %37 = phi <4 x i32> [ %63, %35 ], [ %34, %33 ]
  %38 = phi <4 x i32> [ %64, %35 ], [ zeroinitializer, %33 ]
  %39 = phi i64 [ %66, %35 ], [ %27, %33 ]
  %40 = getelementptr inbounds [100 x [100 x i32]], [100 x [100 x i32]]* %1, i64 0, i64 %31, i64 %36
  %41 = bitcast i32* %40 to <4 x i32>*
  %42 = load <4 x i32>, <4 x i32>* %41, align 16, !tbaa !5
  %43 = getelementptr inbounds i32, i32* %40, i64 4
  %44 = bitcast i32* %43 to <4 x i32>*
  %45 = load <4 x i32>, <4 x i32>* %44, align 16, !tbaa !5
  %46 = icmp eq <4 x i32> %42, zeroinitializer
  %47 = icmp eq <4 x i32> %45, zeroinitializer
  %48 = zext <4 x i1> %46 to <4 x i32>
  %49 = zext <4 x i1> %47 to <4 x i32>
  %50 = add <4 x i32> %37, %48
  %51 = add <4 x i32> %38, %49
  %52 = or i64 %36, 8
  %53 = getelementptr inbounds [100 x [100 x i32]], [100 x [100 x i32]]* %1, i64 0, i64 %31, i64 %52
  %54 = bitcast i32* %53 to <4 x i32>*
  %55 = load <4 x i32>, <4 x i32>* %54, align 16, !tbaa !5
  %56 = getelementptr inbounds i32, i32* %53, i64 4
  %57 = bitcast i32* %56 to <4 x i32>*
  %58 = load <4 x i32>, <4 x i32>* %57, align 16, !tbaa !5
  %59 = icmp eq <4 x i32> %55, zeroinitializer
  %60 = icmp eq <4 x i32> %58, zeroinitializer
  %61 = zext <4 x i1> %59 to <4 x i32>
  %62 = zext <4 x i1> %60 to <4 x i32>
  %63 = add <4 x i32> %50, %61
  %64 = add <4 x i32> %51, %62
  %65 = add nuw i64 %36, 16
  %66 = add i64 %39, -2
  %67 = icmp eq i64 %66, 0
  br i1 %67, label %68, label %35, !llvm.loop !9

68:                                               ; preds = %35, %33
  %69 = phi <4 x i32> [ undef, %33 ], [ %63, %35 ]
  %70 = phi <4 x i32> [ undef, %33 ], [ %64, %35 ]
  %71 = phi i64 [ 0, %33 ], [ %65, %35 ]
  %72 = phi <4 x i32> [ %34, %33 ], [ %63, %35 ]
  %73 = phi <4 x i32> [ zeroinitializer, %33 ], [ %64, %35 ]
  br i1 %28, label %87, label %74

74:                                               ; preds = %68
  %75 = getelementptr inbounds [100 x [100 x i32]], [100 x [100 x i32]]* %1, i64 0, i64 %31, i64 %71
  %76 = getelementptr inbounds i32, i32* %75, i64 4
  %77 = bitcast i32* %76 to <4 x i32>*
  %78 = load <4 x i32>, <4 x i32>* %77, align 16, !tbaa !5
  %79 = icmp eq <4 x i32> %78, zeroinitializer
  %80 = zext <4 x i1> %79 to <4 x i32>
  %81 = add <4 x i32> %73, %80
  %82 = bitcast i32* %75 to <4 x i32>*
  %83 = load <4 x i32>, <4 x i32>* %82, align 16, !tbaa !5
  %84 = icmp eq <4 x i32> %83, zeroinitializer
  %85 = zext <4 x i1> %84 to <4 x i32>
  %86 = add <4 x i32> %72, %85
  br label %87

87:                                               ; preds = %68, %74
  %88 = phi <4 x i32> [ %69, %68 ], [ %86, %74 ]
  %89 = phi <4 x i32> [ %70, %68 ], [ %81, %74 ]
  %90 = add <4 x i32> %89, %88
  %91 = call i32 @llvm.vector.reduce.add.v4i32(<4 x i32> %90)
  br i1 %29, label %105, label %92

92:                                               ; preds = %30, %87
  %93 = phi i64 [ 0, %30 ], [ %24, %87 ]
  %94 = phi i32 [ %32, %30 ], [ %91, %87 ]
  br label %95

95:                                               ; preds = %92, %95
  %96 = phi i64 [ %103, %95 ], [ %93, %92 ]
  %97 = phi i32 [ %102, %95 ], [ %94, %92 ]
  %98 = getelementptr inbounds [100 x [100 x i32]], [100 x [100 x i32]]* %1, i64 0, i64 %31, i64 %96
  %99 = load i32, i32* %98, align 4, !tbaa !5
  %100 = icmp eq i32 %99, 0
  %101 = zext i1 %100 to i32
  %102 = add nsw i32 %97, %101
  %103 = add nuw nsw i64 %96, 1
  %104 = icmp eq i64 %103, %18
  br i1 %104, label %105, label %95, !llvm.loop !12

105:                                              ; preds = %95, %87
  %106 = phi i32 [ %91, %87 ], [ %102, %95 ]
  %107 = add nuw nsw i64 %31, 1
  %108 = icmp eq i64 %107, %18
  br i1 %108, label %131, label %30, !llvm.loop !14

109:                                              ; preds = %8, %109
  %110 = phi i64 [ %119, %109 ], [ 0, %8 ]
  %111 = phi i32 [ %118, %109 ], [ %11, %8 ]
  %112 = getelementptr inbounds [100 x [100 x i32]], [100 x [100 x i32]]* %1, i64 0, i64 %10, i64 %110
  %113 = call nonnull align 8 dereferenceable(16) %"class.std::basic_istream"* @_ZNSirsERi(%"class.std::basic_istream"* nonnull align 8 dereferenceable(16) @_ZSt3cin, i32* nonnull align 4 dereferenceable(4) %112)
  %114 = load i32, i32* %112, align 4, !tbaa !5
  %115 = icmp eq i32 %114, 0
  %116 = select i1 %115, i1 %13, i1 false
  %117 = zext i1 %116 to i32
  %118 = add nsw i32 %111, %117
  %119 = add nuw nsw i64 %110, 1
  %120 = load i32, i32* %2, align 4, !tbaa !5
  %121 = sext i32 %120 to i64
  %122 = icmp slt i64 %119, %121
  br i1 %122, label %109, label %123, !llvm.loop !15

123:                                              ; preds = %109, %8
  %124 = phi i32 [ %9, %8 ], [ %120, %109 ]
  %125 = phi i32 [ %11, %8 ], [ %118, %109 ]
  %126 = sext i32 %124 to i64
  %127 = icmp slt i32 %125, 1
  %128 = select i1 %127, i32 %12, i32 1
  %129 = add nuw nsw i64 %10, 1
  %130 = icmp slt i64 %129, %126
  br i1 %130, label %8, label %15, !llvm.loop !16

131:                                              ; preds = %105, %0, %15
  %132 = phi i32 [ %125, %15 ], [ 0, %0 ], [ %125, %105 ]
  %133 = phi i32 [ 0, %15 ], [ 0, %0 ], [ %106, %105 ]
  %134 = mul i32 %132, -2
  %135 = add i32 %133, %134
  %136 = sdiv i32 %135, 2
  %137 = add nsw i32 %132, -2
  %138 = mul nsw i32 %136, %137
  %139 = call nonnull align 8 dereferenceable(8) %"class.std::basic_ostream"* @_ZNSolsEi(%"class.std::basic_ostream"* nonnull align 8 dereferenceable(8) @_ZSt4cout, i32 %138)
  %140 = bitcast %"class.std::basic_ostream"* %139 to i8**
  %141 = load i8*, i8** %140, align 8, !tbaa !18
  %142 = getelementptr i8, i8* %141, i64 -24
  %143 = bitcast i8* %142 to i64*
  %144 = load i64, i64* %143, align 8
  %145 = bitcast %"class.std::basic_ostream"* %139 to i8*
  %146 = add nsw i64 %144, 240
  %147 = getelementptr inbounds i8, i8* %145, i64 %146
  %148 = bitcast i8* %147 to %"class.std::ctype"**
  %149 = load %"class.std::ctype"*, %"class.std::ctype"** %148, align 8, !tbaa !20
  %150 = icmp eq %"class.std::ctype"* %149, null
  br i1 %150, label %151, label %152

151:                                              ; preds = %131
  call void @_ZSt16__throw_bad_castv() #10
  unreachable

152:                                              ; preds = %131
  %153 = getelementptr inbounds %"class.std::ctype", %"class.std::ctype"* %149, i64 0, i32 8
  %154 = load i8, i8* %153, align 8, !tbaa !24
  %155 = icmp eq i8 %154, 0
  br i1 %155, label %159, label %156

156:                                              ; preds = %152
  %157 = getelementptr inbounds %"class.std::ctype", %"class.std::ctype"* %149, i64 0, i32 9, i64 10
  %158 = load i8, i8* %157, align 1, !tbaa !26
  br label %165

159:                                              ; preds = %152
  call void @_ZNKSt5ctypeIcE13_M_widen_initEv(%"class.std::ctype"* nonnull align 8 dereferenceable(570) %149)
  %160 = bitcast %"class.std::ctype"* %149 to i8 (%"class.std::ctype"*, i8)***
  %161 = load i8 (%"class.std::ctype"*, i8)**, i8 (%"class.std::ctype"*, i8)*** %160, align 8, !tbaa !18
  %162 = getelementptr inbounds i8 (%"class.std::ctype"*, i8)*, i8 (%"class.std::ctype"*, i8)** %161, i64 6
  %163 = load i8 (%"class.std::ctype"*, i8)*, i8 (%"class.std::ctype"*, i8)** %162, align 8
  %164 = call signext i8 %163(%"class.std::ctype"* nonnull align 8 dereferenceable(570) %149, i8 signext 10)
  br label %165

165:                                              ; preds = %156, %159
  %166 = phi i8 [ %158, %156 ], [ %164, %159 ]
  %167 = call nonnull align 8 dereferenceable(8) %"class.std::basic_ostream"* @_ZNSo3putEc(%"class.std::basic_ostream"* nonnull align 8 dereferenceable(8) %139, i8 signext %166)
  %168 = call nonnull align 8 dereferenceable(8) %"class.std::basic_ostream"* @_ZNSo5flushEv(%"class.std::basic_ostream"* nonnull align 8 dereferenceable(8) %167)
  call void @llvm.lifetime.end.p0i8(i64 4, i8* nonnull %4) #9
  call void @llvm.lifetime.end.p0i8(i64 40000, i8* nonnull %3) #9
  ret i32 0
}

; Function Attrs: argmemonly mustprogress nofree nosync nounwind willreturn
declare void @llvm.lifetime.start.p0i8(i64 immarg, i8* nocapture) #4

; Function Attrs: argmemonly mustprogress nofree nounwind willreturn writeonly
declare void @llvm.memset.p0i8.i64(i8* nocapture writeonly, i8, i64, i1 immarg) #5

declare nonnull align 8 dereferenceable(16) %"class.std::basic_istream"* @_ZNSirsERi(%"class.std::basic_istream"* nonnull align 8 dereferenceable(16), i32* nonnull align 4 dereferenceable(4)) local_unnamed_addr #0

declare nonnull align 8 dereferenceable(8) %"class.std::basic_ostream"* @_ZNSolsEi(%"class.std::basic_ostream"* nonnull align 8 dereferenceable(8), i32) local_unnamed_addr #0

; Function Attrs: argmemonly mustprogress nofree nosync nounwind willreturn
declare void @llvm.lifetime.end.p0i8(i64 immarg, i8* nocapture) #4

declare nonnull align 8 dereferenceable(8) %"class.std::basic_ostream"* @_ZNSo3putEc(%"class.std::basic_ostream"* nonnull align 8 dereferenceable(8), i8 signext) local_unnamed_addr #0

declare nonnull align 8 dereferenceable(8) %"class.std::basic_ostream"* @_ZNSo5flushEv(%"class.std::basic_ostream"* nonnull align 8 dereferenceable(8)) local_unnamed_addr #0

; Function Attrs: noreturn
declare void @_ZSt16__throw_bad_castv() local_unnamed_addr #6

declare void @_ZNKSt5ctypeIcE13_M_widen_initEv(%"class.std::ctype"* nonnull align 8 dereferenceable(570)) local_unnamed_addr #0

; Function Attrs: sspstrong uwtable
define internal void @_GLOBAL__sub_I_676.cpp() #7 section ".text.startup" {
  tail call void @_ZNSt8ios_base4InitC1Ev(%"class.std::ios_base::Init"* nonnull align 1 dereferenceable(1) @_ZStL8__ioinit)
  %1 = tail call i32 @__cxa_atexit(void (i8*)* bitcast (void (%"class.std::ios_base::Init"*)* @_ZNSt8ios_base4InitD1Ev to void (i8*)*), i8* getelementptr inbounds (%"class.std::ios_base::Init", %"class.std::ios_base::Init"* @_ZStL8__ioinit, i64 0, i32 0), i8* nonnull @__dso_handle) #9
  ret void
}

; Function Attrs: nofree nosync nounwind readnone willreturn
declare i32 @llvm.vector.reduce.add.v4i32(<4 x i32>) #8


!llvm.module.flags = !{!0, !1, !2, !3}
!llvm.ident = !{!4}

!0 = !{i32 1, !"wchar_size", i32 4}
!1 = !{i32 7, !"PIC Level", i32 2}
!2 = !{i32 7, !"PIE Level", i32 2}
!3 = !{i32 7, !"uwtable", i32 1}
!4 = !{!"clang version 13.0.0"}
!5 = !{!6, !6, i64 0}
!6 = !{!"int", !7, i64 0}
!7 = !{!"omnipotent char", !8, i64 0}
!8 = !{!"Simple C++ TBAA"}
!9 = distinct !{!9, !10, !11}
!10 = !{!"llvm.loop.mustprogress"}
!11 = !{!"llvm.loop.isvectorized", i32 1}
!12 = distinct !{!12, !10, !13, !11}
!13 = !{!"llvm.loop.unroll.runtime.disable"}
!14 = distinct !{!14, !10}
!15 = distinct !{!15, !10}
!16 = distinct !{!16, !10, !17}
!17 = !{!"llvm.loop.unswitch.partial.disable"}
!18 = !{!19, !19, i64 0}
!19 = !{!"vtable pointer", !8, i64 0}
!20 = !{!21, !22, i64 240}
!21 = !{!"_ZTSSt9basic_iosIcSt11char_traitsIcEE", !22, i64 216, !7, i64 224, !23, i64 225, !22, i64 232, !22, i64 240, !22, i64 248, !22, i64 256}
!22 = !{!"any pointer", !7, i64 0}
!23 = !{!"bool", !7, i64 0}
!24 = !{!25, !7, i64 56}
!25 = !{!"_ZTSSt5ctypeIcE", !22, i64 16, !23, i64 24, !22, i64 32, !22, i64 40, !22, i64 48, !7, i64 56, !7, i64 57, !7, i64 313, !7, i64 569}
!26 = !{!7, !7, i64 0}
